	.cpu arm920t
	.fpu softvfp
	.eabi_attribute 20, 1
	.eabi_attribute 21, 1
	.eabi_attribute 23, 3
	.eabi_attribute 24, 1
	.eabi_attribute 25, 1
	.eabi_attribute 26, 1
	.eabi_attribute 30, 1
	.eabi_attribute 34, 0
	.eabi_attribute 18, 4
	.file	"isr.c"
	.text
.Ltext0:
	.cfi_sections	.debug_frame
	.align	2
	.global	isr_reset
	.type	isr_reset, %function
isr_reset:
.LFB1:
	.file 1 "system/isr.c"
	.loc 1 21 0
	.cfi_startproc
	@ Function supports interworking.
	@ args = 0, pretend = 0, frame = 0
	@ frame_needed = 0, uses_anonymous_args = 0
	stmfd	sp!, {r3, lr}
	.cfi_def_cfa_offset 8
	.cfi_offset 3, -8
	.cfi_offset 14, -4
	.loc 1 22 0
	ldr	r0, .L2
	bl	printf
.LVL0:
	.loc 1 25 0
	mov	r0, #0
	ldmfd	sp!, {r3, lr}
	bx	lr
.L3:
	.align	2
.L2:
	.word	.LC0
	.cfi_endproc
.LFE1:
	.size	isr_reset, .-isr_reset
	.align	2
	.global	isr_ui
	.type	isr_ui, %function
isr_ui:
.LFB2:
	.loc 1 27 0
	.cfi_startproc
	@ Function supports interworking.
	@ args = 0, pretend = 0, frame = 0
	@ frame_needed = 0, uses_anonymous_args = 0
	stmfd	sp!, {r3, lr}
	.cfi_def_cfa_offset 8
	.cfi_offset 3, -8
	.cfi_offset 14, -4
	.loc 1 28 0
	ldr	r0, .L5
	bl	printf
.LVL1:
	.loc 1 30 0
	mov	r0, #0
	ldmfd	sp!, {r3, lr}
	bx	lr
.L6:
	.align	2
.L5:
	.word	.LC1
	.cfi_endproc
.LFE2:
	.size	isr_ui, .-isr_ui
	.align	2
	.global	isr_swi
	.type	isr_swi, %function
isr_swi:
.LFB3:
	.loc 1 32 0
	.cfi_startproc
	@ Function supports interworking.
	@ args = 0, pretend = 0, frame = 0
	@ frame_needed = 0, uses_anonymous_args = 0
	stmfd	sp!, {r3, lr}
	.cfi_def_cfa_offset 8
	.cfi_offset 3, -8
	.cfi_offset 14, -4
	.loc 1 33 0
	ldr	r0, .L8
	bl	printf
.LVL2:
	.loc 1 35 0
	mov	r0, #0
	ldmfd	sp!, {r3, lr}
	bx	lr
.L9:
	.align	2
.L8:
	.word	.LC2
	.cfi_endproc
.LFE3:
	.size	isr_swi, .-isr_swi
	.align	2
	.global	isr_pa
	.type	isr_pa, %function
isr_pa:
.LFB4:
	.loc 1 37 0
	.cfi_startproc
	@ Function supports interworking.
	@ args = 0, pretend = 0, frame = 0
	@ frame_needed = 0, uses_anonymous_args = 0
	stmfd	sp!, {r3, lr}
	.cfi_def_cfa_offset 8
	.cfi_offset 3, -8
	.cfi_offset 14, -4
	.loc 1 38 0
	ldr	r0, .L11
	bl	printf
.LVL3:
	.loc 1 40 0
	mov	r0, #0
	ldmfd	sp!, {r3, lr}
	bx	lr
.L12:
	.align	2
.L11:
	.word	.LC3
	.cfi_endproc
.LFE4:
	.size	isr_pa, .-isr_pa
	.align	2
	.global	isr_da
	.type	isr_da, %function
isr_da:
.LFB5:
	.loc 1 42 0
	.cfi_startproc
	@ Function supports interworking.
	@ args = 0, pretend = 0, frame = 0
	@ frame_needed = 0, uses_anonymous_args = 0
	stmfd	sp!, {r3, lr}
	.cfi_def_cfa_offset 8
	.cfi_offset 3, -8
	.cfi_offset 14, -4
	.loc 1 43 0
	ldr	r0, .L14
	bl	printf
.LVL4:
	.loc 1 45 0
	mov	r0, #0
	ldmfd	sp!, {r3, lr}
	bx	lr
.L15:
	.align	2
.L14:
	.word	.LC4
	.cfi_endproc
.LFE5:
	.size	isr_da, .-isr_da
	.align	2
	.global	isr_irq
	.type	isr_irq, %function
isr_irq:
.LFB6:
	.loc 1 47 0
	.cfi_startproc
	@ Function supports interworking.
	@ args = 0, pretend = 0, frame = 0
	@ frame_needed = 0, uses_anonymous_args = 0
	stmfd	sp!, {r3, lr}
	.cfi_def_cfa_offset 8
	.cfi_offset 3, -8
	.cfi_offset 14, -4
	.loc 1 48 0
	ldr	r0, .L17
	bl	printf
.LVL5:
	.loc 1 50 0
	mov	r0, #0
	ldmfd	sp!, {r3, lr}
	bx	lr
.L18:
	.align	2
.L17:
	.word	.LC5
	.cfi_endproc
.LFE6:
	.size	isr_irq, .-isr_irq
	.align	2
	.global	isr_fiq
	.type	isr_fiq, %function
isr_fiq:
.LFB7:
	.loc 1 52 0
	.cfi_startproc
	@ Function supports interworking.
	@ args = 0, pretend = 0, frame = 0
	@ frame_needed = 0, uses_anonymous_args = 0
	stmfd	sp!, {r3, lr}
	.cfi_def_cfa_offset 8
	.cfi_offset 3, -8
	.cfi_offset 14, -4
	.loc 1 53 0
	ldr	r0, .L20
	bl	printf
.LVL6:
	.loc 1 55 0
	mov	r0, #0
	ldmfd	sp!, {r3, lr}
	bx	lr
.L21:
	.align	2
.L20:
	.word	.LC6
	.cfi_endproc
.LFE7:
	.size	isr_fiq, .-isr_fiq
	.align	2
	.global	isr_init
	.type	isr_init, %function
isr_init:
.LFB0:
	.loc 1 6 0
	.cfi_startproc
	@ Function supports interworking.
	@ args = 0, pretend = 0, frame = 0
	@ frame_needed = 0, uses_anonymous_args = 0
	stmfd	sp!, {r3, lr}
	.cfi_def_cfa_offset 8
	.cfi_offset 3, -8
	.cfi_offset 14, -4
	.loc 1 7 0
	ldr	r3, .L23
.LVL7:
	.loc 1 9 0
	mov	r0, #2097152
	mov	r1, r3
	ldr	r2, .L23+4
	rsb	r2, r3, r2
.LVL8:
	bl	memcpy
.LVL9:
	.loc 1 11 0
	mov	r2, #1
	mvn	r3, #0
	str	r2, [r3, #-255]
	.loc 1 13 0
@ 13 "system/isr.c" 1
	MRS r0, CPSR
BIC r0, r0, #0xC0
MSR CPSR_c, r0

@ 0 "" 2
	.loc 1 19 0
	mov	r0, #0
	ldmfd	sp!, {r3, lr}
	bx	lr
.L24:
	.align	2
.L23:
	.word	ivt_start
	.word	ivt_end
	.cfi_endproc
.LFE0:
	.size	isr_init, .-isr_init
	.global	isr_functions
	.data
	.align	2
	.type	isr_functions, %object
	.size	isr_functions, 28
isr_functions:
	.word	isr_reset
	.word	isr_ui
	.word	isr_swi
	.word	isr_pa
	.word	isr_da
	.word	isr_irq
	.word	isr_fiq
	.section	.rodata.str1.4,"aMS",%progbits,1
	.align	2
.LC0:
	.ascii	">RESET ISR<\000"
.LC1:
	.ascii	">UI ISR<\000"
	.space	3
.LC2:
	.ascii	">SWI ISR<\000"
	.space	2
.LC3:
	.ascii	">PA ISR<\000"
	.space	3
.LC4:
	.ascii	">DA ISR<\000"
	.space	3
.LC5:
	.ascii	">IRQ ISR<\000"
	.space	2
.LC6:
	.ascii	">FIQ ISR<\000"
	.text
.Letext0:
	.file 2 "include/debug_unit.h"
	.file 3 "include/memory.h"