	.cpu arm920t
	.fpu softvfp
	.eabi_attribute 20, 1
	.eabi_attribute 21, 1
	.eabi_attribute 23, 3
	.eabi_attribute 24, 1
	.eabi_attribute 25, 1
	.eabi_attribute 26, 1
	.eabi_attribute 30, 1
	.eabi_attribute 34, 0
	.eabi_attribute 18, 4
	.file	"memory.c"
	.text
.Ltext0:
	.cfi_sections	.debug_frame
	.align	2
	.global	memcpy
	.type	memcpy, %function
memcpy:
.LFB0:
	.file 1 "lib/memory.c"
	.loc 1 4 0
	.cfi_startproc
	@ Function supports interworking.
	@ args = 0, pretend = 0, frame = 0
	@ frame_needed = 0, uses_anonymous_args = 0
	@ link register save eliminated.
.LVL0:
	.loc 1 5 0
	mov	r3, r0
	.loc 1 7 0
	b	.L2
.LVL1:
.L3:
	.loc 1 8 0
	ldrb	r2, [r1]	@ zero_extendqisi2
	strb	r2, [r3]
	.loc 1 7 0
	mov	r2, ip
	.loc 1 8 0
	add	r1, r1, #1
.LVL2:
	add	r3, r3, #1
.LVL3:
.L2:
	.loc 1 7 0 discriminator 1
	sub	ip, r2, #1
.LVL4:
	cmp	r2, #0
	bne	.L3
	.loc 1 11 0
	bx	lr
	.cfi_endproc
.LFE0:
	.size	memcpy, .-memcpy
	.align	2
	.global	stack_memcpy
	.type	stack_memcpy, %function
stack_memcpy:
.LFB1:
	.loc 1 13 0
	.cfi_startproc
	@ Function supports interworking.
	@ args = 0, pretend = 0, frame = 0
	@ frame_needed = 0, uses_anonymous_args = 0
	@ link register save eliminated.
.LVL5:
	.loc 1 14 0
	mov	r3, r0
	.loc 1 16 0
	b	.L5
.LVL6:
.L6:
	.loc 1 17 0
	ldrb	r2, [r1]	@ zero_extendqisi2
	strb	r2, [r3]
	.loc 1 16 0
	mov	r2, ip
	.loc 1 17 0
	add	r1, r1, #1
.LVL7:
	sub	r3, r3, #1
.LVL8:
.L5:
	.loc 1 16 0 discriminator 1
	sub	ip, r2, #1
.LVL9:
	cmp	r2, #0
	bne	.L6
	.loc 1 20 0
	bx	lr
	.cfi_endproc
.LFE1:
	.size	stack_memcpy, .-stack_memcpy
	.align	2
	.global	memcmp
	.type	memcmp, %function
memcmp:
.LFB2:
	.loc 1 22 0
	.cfi_startproc
	@ Function supports interworking.
	@ args = 0, pretend = 0, frame = 0
	@ frame_needed = 0, uses_anonymous_args = 0
	@ link register save eliminated.
.LVL10:
	str	r4, [sp, #-4]!
	.cfi_def_cfa_offset 4
	.cfi_offset 4, -4
.LVL11:
	.loc 1 26 0
	b	.L8
.LVL12:
.L11:
	.loc 1 28 0
	add	ip, r0, #1
.LVL13:
	ldrb	r0, [r0]	@ zero_extendqisi2
	add	r4, r1, #1
.LVL14:
	ldrb	r1, [r1]	@ zero_extendqisi2
	.loc 1 26 0
	mov	r2, r3
	.loc 1 28 0
	cmp	r0, r1
	beq	.L12
.LVL15:
	.loc 1 29 0
	mvncc	r0, #0
	bcc	.L10
.L13:
	mov	r0, #1
	b	.L10
.L12:
	.loc 1 28 0
	mov	r1, r4
	mov	r0, ip
.LVL16:
.L8:
	.loc 1 26 0 discriminator 1
	sub	r3, r2, #1
.LVL17:
	cmp	r2, #0
	bne	.L11
	.loc 1 31 0
	mov	r0, #0
.LVL18:
.L10:
	.loc 1 32 0
	ldr	r4, [sp], #4
	bx	lr
	.cfi_endproc
.LFE2:
	.size	memcmp, .-memcmp
	.align	2
	.global	memset
	.type	memset, %function
memset:
.LFB3:
	.loc 1 50 0
	.cfi_startproc
	@ Function supports interworking.
	@ args = 0, pretend = 0, frame = 0
	@ frame_needed = 0, uses_anonymous_args = 0
	@ link register save eliminated.
.LVL19:
	.loc 1 51 0
	mov	r3, r0
	.loc 1 52 0
	b	.L15
.LVL20:
.L16:
	.loc 1 53 0
	strb	r1, [r3]
	.loc 1 52 0
	mov	r2, ip
	.loc 1 53 0
	add	r3, r3, #1
.LVL21:
.L15:
	.loc 1 52 0 discriminator 1
	sub	ip, r2, #1
.LVL22:
	cmp	r2, #0
	bne	.L16
	.loc 1 55 0
	bx	lr
	.cfi_endproc
.LFE3:
	.size	memset, .-memset
.Letext0: