	.cpu arm920t
	.fpu softvfp
	.eabi_attribute 20, 1
	.eabi_attribute 21, 1
	.eabi_attribute 23, 3
	.eabi_attribute 24, 1
	.eabi_attribute 25, 1
	.eabi_attribute 26, 1
	.eabi_attribute 30, 1
	.eabi_attribute 34, 0
	.eabi_attribute 18, 4
	.file	"swi_util.c"
	.text
.Ltext0:
	.cfi_sections	.debug_frame
	.align	2
	.global	_create_t
	.type	_create_t, %function
_create_t:
.LFB0:
	.file 1 "system/swi_util.c"
	.loc 1 4 0
	.cfi_startproc
	@ Function supports interworking.
	@ args = 0, pretend = 0, frame = 0
	@ frame_needed = 0, uses_anonymous_args = 0
.LVL0:
	stmfd	sp!, {r3, lr}
	.cfi_def_cfa_offset 8
	.cfi_offset 3, -8
	.cfi_offset 14, -4
	.loc 1 5 0
	bl	tcb_insert
.LVL1:
	.loc 1 7 0
	mov	r0, #0
	ldmfd	sp!, {r3, lr}
	bx	lr
	.cfi_endproc
.LFE0:
	.size	_create_t, .-_create_t
	.align	2
	.global	_kill_t
	.type	_kill_t, %function
_kill_t:
.LFB1:
	.loc 1 9 0
	.cfi_startproc
	@ Function supports interworking.
	@ args = 0, pretend = 0, frame = 0
	@ frame_needed = 0, uses_anonymous_args = 0
.LVL2:
	stmfd	sp!, {r4, lr}
	.cfi_def_cfa_offset 8
	.cfi_offset 4, -8
	.cfi_offset 14, -4
	mov	r4, r0
	.loc 1 10 0
	ldr	r1, .L3
	bl	tcb_list_remove
.LVL3:
	.loc 1 11 0
	mov	r3, #4
	strb	r3, [r4, #76]
	.loc 1 12 0
	ldr	r2, .L3+4
	mov	r0, r4
	ldr	r1, [r2]
	bl	tcb_list_insert
.LVL4:
	.loc 1 14 0
	mov	r0, #0
	ldmfd	sp!, {r4, lr}
.LVL5:
	bx	lr
.L4:
	.align	2
.L3:
	.word	running_head
	.word	empty_head
	.cfi_endproc
.LFE1:
	.size	_kill_t, .-_kill_t
	.align	2
	.global	_sleep
	.type	_sleep, %function
_sleep:
.LFB2:
	.loc 1 16 0
	.cfi_startproc
	@ Function supports interworking.
	@ args = 0, pretend = 0, frame = 0
	@ frame_needed = 0, uses_anonymous_args = 0
.LVL6:
	stmfd	sp!, {r3, r4, r5, lr}
	.cfi_def_cfa_offset 16
	.cfi_offset 3, -16
	.cfi_offset 4, -12
	.cfi_offset 5, -8
	.cfi_offset 14, -4
	mov	r4, r0
	.loc 1 17 0
	mov	r3, #3
	strb	r3, [r0, #76]
	.loc 1 18 0
	ldr	r3, .L12
	ldr	r3, [r3]
	add	r1, r1, r3
.LVL7:
	str	r1, [r0, #88]
	.loc 1 20 0
	ldr	r1, .L12+4
	bl	tcb_list_remove
.LVL8:
	.loc 1 22 0
	ldr	r3, .L12+8
	ldr	r1, [r3]
	cmp	r1, #0
	bne	.L6
	.loc 1 23 0
	mov	r0, r4
	mov	r2, r3
	bl	tcb_list_insert
.LVL9:
	b	.L7
.L6:
	.loc 1 25 0
	ldr	r3, [r1, #88]
	ldr	lr, [r4, #88]
	cmp	r3, lr
	ble	.L8
	.loc 1 26 0
	ldr	r5, .L12+8
	mov	r0, r4
	ldr	r1, [r1, #80]
	mov	r2, r5
	bl	tcb_list_insert
.LVL10:
	.loc 1 27 0
	str	r4, [r5]
	b	.L7
.L8:
.LBB2:
	.loc 1 30 0
	ldr	r3, [r1, #84]
.LVL11:
	.loc 1 31 0
	b	.L9
.L11:
	.loc 1 32 0
	ldr	r2, [r3, #84]
	ldr	ip, [r2, #88]
	cmp	lr, ip
	blt	.L10
	.loc 1 35 0
	mov	r3, r2
.LVL12:
.L9:
	.loc 1 31 0 discriminator 1
	cmp	r3, r1
	bne	.L11
.L10:
	.loc 1 37 0
	mov	r0, r4
	ldr	r1, [r3, #80]
	ldr	r2, .L12+8
	bl	tcb_list_insert
.LVL13:
.L7:
.LBE2:
	.loc 1 40 0
	mov	r0, #0
	ldmfd	sp!, {r3, r4, r5, lr}
.LVL14:
	bx	lr
.L13:
	.align	2
.L12:
	.word	system_time
	.word	running_head
	.word	sleeping_head
	.cfi_endproc
.LFE2:
	.size	_sleep, .-_sleep
	.align	2
	.global	_receive
	.type	_receive, %function
_receive:
.LFB3:
	.loc 1 42 0
	.cfi_startproc
	@ Function supports interworking.
	@ args = 0, pretend = 0, frame = 0
	@ frame_needed = 0, uses_anonymous_args = 0
.LVL15:
	stmfd	sp!, {r3, r4, r5, lr}
	.cfi_def_cfa_offset 16
	.cfi_offset 3, -16
	.cfi_offset 4, -12
	.cfi_offset 5, -8
	.cfi_offset 14, -4
	mov	r4, r0
	.loc 1 44 0
	mov	r3, #3
	strb	r3, [r0, #76]
	.loc 1 45 0
	str	r1, [r0, #88]
	.loc 1 47 0
	ldr	r1, .L21
.LVL16:
	bl	tcb_list_remove
.LVL17:
	.loc 1 49 0
	ldr	r3, .L21+4
	ldr	r1, [r3]
	cmp	r1, #0
	bne	.L15
	.loc 1 50 0
	mov	r0, r4
	mov	r2, r3
	bl	tcb_list_insert
.LVL18:
	b	.L16
.L15:
	.loc 1 52 0
	ldr	r3, [r1, #88]
	ldr	lr, [r4, #88]
	cmp	r3, lr
	ble	.L17
	.loc 1 53 0
	ldr	r5, .L21+4
	mov	r0, r4
	ldr	r1, [r1, #80]
	mov	r2, r5
	bl	tcb_list_insert
.LVL19:
	.loc 1 54 0
	str	r4, [r5]
	b	.L16
.L17:
.LBB3:
	.loc 1 57 0
	ldr	r3, [r1, #84]
.LVL20:
	.loc 1 58 0
	b	.L18
.L20:
	.loc 1 59 0
	ldr	r2, [r3, #84]
	ldr	ip, [r2, #88]
	cmp	lr, ip
	blt	.L19
	.loc 1 62 0
	mov	r3, r2
.LVL21:
.L18:
	.loc 1 58 0 discriminator 1
	cmp	r3, r1
	bne	.L20
.L19:
	.loc 1 64 0
	mov	r0, r4
	ldr	r1, [r3, #80]
	ldr	r2, .L21+4
	bl	tcb_list_insert
.LVL22:
.L16:
.LBE3:
	.loc 1 67 0
	mov	r0, #0
	ldmfd	sp!, {r3, r4, r5, lr}
.LVL23:
	bx	lr
.L22:
	.align	2
.L21:
	.word	running_head
	.word	waiting_head
	.cfi_endproc
.LFE3:
	.size	_receive, .-_receive
	.comm	pit_time,4,4
	.comm	system_time,4,4
	.comm	TCB_size,4,4
	.comm	idle_thread,4,4
	.comm	TCB_array,4,4
	.comm	current_context,4,4
	.comm	empty_head,4,4
	.comm	waiting_head,4,4
	.comm	sleeping_head,4,4
	.comm	running_head,4,4
.Letext0:
	.file 2 "include/system.h"
	.file 3 "include/time.h"