	.cpu arm920t
	.fpu softvfp
	.eabi_attribute 20, 1
	.eabi_attribute 21, 1
	.eabi_attribute 23, 3
	.eabi_attribute 24, 1
	.eabi_attribute 25, 1
	.eabi_attribute 26, 1
	.eabi_attribute 30, 1
	.eabi_attribute 34, 0
	.eabi_attribute 18, 4
	.file	"tcb.c"
	.text
.Ltext0:
	.cfi_sections	.debug_frame
	.align	2
	.global	idle
	.type	idle, %function
idle:
.LFB8:
	.file 1 "system/tcb.c"
	.loc 1 135 0
	.cfi_startproc
	@ Function supports interworking.
	@ args = 0, pretend = 0, frame = 0
	@ frame_needed = 0, uses_anonymous_args = 0
	@ link register save eliminated.
.LBB2:
	.loc 1 142 0
	mov	r3, #0
	ldr	r2, .L6
	mov	r1, r3
	b	.L5
.LVL0:
.L3:
	.loc 1 142 0 is_stmt 0 discriminator 2
	add	r3, r3, #1
.LVL1:
.L5:
	.loc 1 142 0 discriminator 1
	cmp	r3, r2
	ble	.L3
	.loc 1 142 0
	mov	r3, r1
.LVL2:
	b	.L5
.L7:
	.align	2
.L6:
	.word	214748363
.LBE2:
	.cfi_endproc
.LFE8:
	.size	idle, .-idle
	.align	2
	.global	save_context
	.type	save_context, %function
save_context:
.LFB1:
	.loc 1 33 0 is_stmt 1
	.cfi_startproc
	@ Function supports interworking.
	@ args = 0, pretend = 0, frame = 0
	@ frame_needed = 0, uses_anonymous_args = 0
.LVL3:
	stmfd	sp!, {r3, lr}
	.cfi_def_cfa_offset 8
	.cfi_offset 3, -8
	.cfi_offset 14, -4
	.loc 1 35 0
	add	r0, r0, #8
.LVL4:
	mov	r2, #68
	bl	memcpy
.LVL5:
	.loc 1 37 0
	mov	r0, #0
	ldmfd	sp!, {r3, lr}
	bx	lr
	.cfi_endproc
.LFE1:
	.size	save_context, .-save_context
	.align	2
	.global	run_thread
	.type	run_thread, %function
run_thread:
.LFB2:
	.loc 1 39 0
	.cfi_startproc
	@ Function supports interworking.
	@ args = 0, pretend = 0, frame = 0
	@ frame_needed = 0, uses_anonymous_args = 0
.LVL6:
	stmfd	sp!, {r3, lr}
	.cfi_def_cfa_offset 8
	.cfi_offset 3, -8
	.cfi_offset 14, -4
	mov	r3, r0
	.loc 1 40 0
	mov	r2, #2
	strb	r2, [r0, #76]
	.loc 1 41 0
	mov	r0, r1
.LVL7:
	add	r1, r3, #8
.LVL8:
	mov	r2, #68
	bl	memcpy
.LVL9:
	.loc 1 43 0
	mov	r0, #0
	ldmfd	sp!, {r3, lr}
	bx	lr
	.cfi_endproc
.LFE2:
	.size	run_thread, .-run_thread
	.align	2
	.global	create_tcb
	.type	create_tcb, %function
create_tcb:
.LFB4:
	.loc 1 63 0
	.cfi_startproc
	@ Function supports interworking.
	@ args = 4, pretend = 0, frame = 0
	@ frame_needed = 0, uses_anonymous_args = 0
.LVL10:
	stmfd	sp!, {r4, r5, r6, lr}
	.cfi_def_cfa_offset 16
	.cfi_offset 4, -16
	.cfi_offset 5, -12
	.cfi_offset 6, -8
	.cfi_offset 14, -4
	ldr	r6, [sp, #16]
	.loc 1 64 0
	ldr	ip, .L16
	ldr	ip, [ip]
	str	ip, [r0]
	.loc 1 65 0
	mov	ip, #0
	strb	ip, [r0, #76]
	.loc 1 66 0
	str	ip, [r0, #88]
	.loc 1 67 0
	str	r6, [r0, #4]
	.loc 1 69 0
	str	r6, [r0, #8]
	.loc 1 70 0
	ldr	ip, .L16+4
	str	ip, [r0, #12]
	.loc 1 71 0
	mov	ip, #16
	str	ip, [r0, #16]
	.loc 1 72 0
	add	r1, r1, #4
.LVL11:
	str	r1, [r0, #20]
.LVL12:
.LBB3:
	.loc 1 74 0
	mov	ip, #4
	.loc 1 75 0
	mov	r1, #0
.LVL13:
	.loc 1 74 0
	b	.L11
.LVL14:
.L12:
	.loc 1 75 0 discriminator 2
	add	r4, ip, #2
	str	r1, [r0, r4, asl #2]
	.loc 1 74 0 discriminator 2
	add	ip, ip, #1
.LVL15:
.L11:
	.loc 1 74 0 is_stmt 0 discriminator 1
	cmp	ip, #16
	ble	.L12
	mov	ip, #0
.LVL16:
	b	.L13
.LVL17:
.L14:
.LBE3:
.LBB4:
	.loc 1 79 0 is_stmt 1 discriminator 2
	ldr	r5, [r3, ip, asl #2]
	add	r4, ip, #6
	str	r5, [r0, r4, asl #2]
	.loc 1 78 0 discriminator 2
	add	ip, ip, #1
.LVL18:
.L13:
	.loc 1 78 0 is_stmt 0 discriminator 1
	cmp	ip, #3
	cmple	ip, r2
	blt	.L14
.LBE4:
	.loc 1 81 0 is_stmt 1
	sub	r2, r2, #4
.LVL19:
	.loc 1 83 0
	cmp	r2, #0
	.loc 1 84 0
	movgt	r0, r6
.LVL20:
	addgt	r1, r3, #16
	movgt	r2, r2, asl #2
.LVL21:
	blgt	memcpy
.LVL22:
.L15:
	.loc 1 87 0
	mov	r0, #0
	ldmfd	sp!, {r4, r5, r6, lr}
	bx	lr
.L17:
	.align	2
.L16:
	.word	.LANCHOR0
	.word	kill_t
	.cfi_endproc
.LFE4:
	.size	create_tcb, .-create_tcb
	.align	2
	.global	tcb_list_remove
	.type	tcb_list_remove, %function
tcb_list_remove:
.LFB5:
	.loc 1 89 0
	.cfi_startproc
	@ Function supports interworking.
	@ args = 0, pretend = 0, frame = 0
	@ frame_needed = 0, uses_anonymous_args = 0
	@ link register save eliminated.
.LVL23:
	.loc 1 90 0
	ldr	r3, [r0, #84]
	cmp	r3, r0
	.loc 1 91 0
	moveq	r3, #0
	streq	r3, [r1]
	.loc 1 92 0
	beq	.L20
.L19:
	.loc 1 94 0
	ldr	r2, [r1]
	cmp	r2, r0
	.loc 1 95 0
	streq	r3, [r1]
.L21:
	.loc 1 98 0
	ldr	r3, [r0, #84]
	ldr	r2, [r0, #80]
	str	r2, [r3, #80]
	.loc 1 99 0
	ldr	r3, [r0, #80]
	ldr	r2, [r0, #84]
	str	r2, [r3, #84]
.L20:
	.loc 1 101 0
	mov	r0, #0
.LVL24:
	bx	lr
	.cfi_endproc
.LFE5:
	.size	tcb_list_remove, .-tcb_list_remove
	.align	2
	.global	tcb_list_insert
	.type	tcb_list_insert, %function
tcb_list_insert:
.LFB6:
	.loc 1 103 0
	.cfi_startproc
	@ Function supports interworking.
	@ args = 0, pretend = 0, frame = 0
	@ frame_needed = 0, uses_anonymous_args = 0
	@ link register save eliminated.
.LVL25:
	.loc 1 104 0
	cmp	r1, #0
	.loc 1 105 0
	streq	r0, [r2]
	.loc 1 106 0
	streq	r0, [r0, #84]
	.loc 1 107 0
	streq	r0, [r0, #80]
	beq	.L24
.L23:
	.loc 1 110 0
	ldr	r3, [r1, #84]
	str	r0, [r3, #80]
	.loc 1 111 0
	ldr	r3, [r1, #84]
	str	r3, [r0, #84]
	.loc 1 112 0
	str	r0, [r1, #84]
	.loc 1 113 0
	str	r1, [r0, #80]
.L24:
	.loc 1 116 0
	mov	r0, #0
.LVL26:
	bx	lr
	.cfi_endproc
.LFE6:
	.size	tcb_list_insert, .-tcb_list_insert
	.align	2
	.global	tcb_insert
	.type	tcb_insert, %function
tcb_insert:
.LFB3:
	.loc 1 45 0
	.cfi_startproc
	@ Function supports interworking.
	@ args = 0, pretend = 0, frame = 96
	@ frame_needed = 0, uses_anonymous_args = 0
.LVL27:
	stmfd	sp!, {r4, r5, r6, r7, lr}
	.cfi_def_cfa_offset 20
	.cfi_offset 4, -20
	.cfi_offset 5, -16
	.cfi_offset 6, -12
	.cfi_offset 7, -8
	.cfi_offset 14, -4
	sub	sp, sp, #108
	.cfi_def_cfa_offset 128
	mov	r7, r0
	mov	r6, r1
	mov	r5, r2
	.loc 1 47 0
	ldr	ip, .L28
	ldr	ip, [ip]
	cmp	ip, #0
	beq	.L27
	.loc 1 51 0
	ldr	r4, [ip, #80]
.LVL28:
	.loc 1 53 0
	mov	r0, r4
.LVL29:
	ldr	r1, .L28
.LVL30:
	bl	tcb_list_remove
.LVL31:
	.loc 1 55 0
	ldr	r3, [r4, #4]
	str	r3, [sp]
	add	r0, sp, #8
	mov	r1, r7
	mov	r2, r6
	mov	r3, r5
	bl	create_tcb
.LVL32:
	.loc 1 56 0
	mov	r0, r4
	add	r1, sp, #8
	mov	r2, #96
	bl	memcpy
.LVL33:
	.loc 1 57 0
	ldr	r3, .L28+4
	ldr	r2, [r3]
	add	r2, r2, #1
	str	r2, [r3]
	.loc 1 59 0
	ldr	r2, .L28+8
	ldr	r3, [r2]
	mov	r0, r4
	ldr	r1, [r3, #80]
	bl	tcb_list_insert
.LVL34:
	.loc 1 60 0
	mov	r0, #0
	b	.L26
.LVL35:
.L27:
	.loc 1 48 0
	mov	r0, #1
.LVL36:
.L26:
	.loc 1 61 0
	add	sp, sp, #108
	@ sp needed
	ldmfd	sp!, {r4, r5, r6, r7, lr}
.LVL37:
	bx	lr
.L29:
	.align	2
.L28:
	.word	empty_head
	.word	.LANCHOR0
	.word	running_head
	.cfi_endproc
.LFE3:
	.size	tcb_insert, .-tcb_insert
	.align	2
	.global	create_idle
	.type	create_idle, %function
create_idle:
.LFB7:
	.loc 1 118 0
	.cfi_startproc
	@ Function supports interworking.
	@ args = 0, pretend = 0, frame = 96
	@ frame_needed = 0, uses_anonymous_args = 0
	stmfd	sp!, {r4, r5, lr}
	.cfi_def_cfa_offset 12
	.cfi_offset 4, -12
	.cfi_offset 5, -8
	.cfi_offset 14, -4
	sub	sp, sp, #100
	.cfi_def_cfa_offset 112
	.loc 1 119 0
	ldr	r3, .L31
	ldr	r5, [r3]
	rsb	r5, r5, #8960
	add	r5, r5, #3
	mov	r5, r5, asl #16
.LVL38:
	.loc 1 120 0
	mov	r4, #96
	mov	r0, sp
	mov	r1, #0
	mov	r2, r4
	bl	memset
.LVL39:
	mvn	r3, #1
	str	r3, [sp]
	.loc 1 124 0
	str	r5, [sp, #8]
	.loc 1 126 0
	mov	r3, #16
	str	r3, [sp, #16]
	.loc 1 127 0
	ldr	r3, .L31+4
	str	r3, [sp, #20]
	.loc 1 129 0
	mov	r3, #5
	strb	r3, [sp, #76]
	.loc 1 130 0
	ldr	r3, .L31+8
	ldr	r0, [r3]
	sub	r0, r0, #9216
	ldr	r3, .L31+12
	str	r0, [r3]
	.loc 1 131 0
	mov	r1, sp
	mov	r2, r4
	bl	memcpy
.LVL40:
	.loc 1 133 0
	mov	r0, #0
	add	sp, sp, #100
	@ sp needed
	ldmfd	sp!, {r4, r5, lr}
.LVL41:
	bx	lr
.L32:
	.align	2
.L31:
	.word	TCB_size
	.word	idle+4
	.word	TCB_array
	.word	idle_thread
	.cfi_endproc
.LFE7:
	.size	create_idle, .-create_idle
	.align	2
	.global	init_tcb
	.type	init_tcb, %function
init_tcb:
.LFB0:
	.loc 1 7 0
	.cfi_startproc
	@ Function supports interworking.
	@ args = 0, pretend = 0, frame = 96
	@ frame_needed = 0, uses_anonymous_args = 0
.LVL42:
	stmfd	sp!, {r4, r5, r6, r7, r8, lr}
	.cfi_def_cfa_offset 24
	.cfi_offset 4, -24
	.cfi_offset 5, -20
	.cfi_offset 6, -16
	.cfi_offset 7, -12
	.cfi_offset 8, -8
	.cfi_offset 14, -4
	sub	sp, sp, #96
	.cfi_def_cfa_offset 120
	.loc 1 8 0
	mov	r4, #0
	ldr	r3, .L36
	str	r4, [r3]
	.loc 1 9 0
	ldr	r3, .L36+4
	str	r4, [r3]
	.loc 1 10 0
	ldr	r3, .L36+8
	str	r4, [r3]
	.loc 1 11 0
	ldr	r3, .L36+12
	str	r4, [r3]
	.loc 1 12 0
	ldr	r3, .L36+16
	str	r4, [r3]
	.loc 1 14 0
	ldr	r3, .L36+20
	str	r0, [r3]
	.loc 1 15 0
	ldr	r3, .L36+24
	str	r1, [r3]
	.loc 1 17 0
	mov	r0, sp
.LVL43:
	mov	r1, r4
.LVL44:
	mov	r2, #96
	bl	memset
.LVL45:
	mvn	r3, #0
	str	r3, [sp]
	mov	r3, #4
	strb	r3, [sp, #76]
.LVL46:
.LBB5:
	.loc 1 19 0
	ldr	r7, .L36+24
	.loc 1 20 0
	ldr	r6, .L36+20
	mov	r8, #96
	.loc 1 19 0
	b	.L34
.LVL47:
.L35:
	.loc 1 20 0 discriminator 2
	ldr	r0, [r6]
	add	r5, r4, r4, asl #1
	mov	r5, r5, asl #5
	add	r0, r0, r5
	mov	r1, sp
	mov	r2, r8
	bl	memcpy
.LVL48:
	.loc 1 21 0 discriminator 2
	ldr	r1, [r6]
	add	r3, r1, r5
	rsb	r2, r4, #8960
	add	r2, r2, #3
	mov	r2, r2, asl #16
	str	r2, [r3, #4]
	.loc 1 22 0 discriminator 2
	add	r4, r4, #1
.LVL49:
	add	r2, r4, r4, asl #1
	mov	r2, r2, asl #5
	add	r2, r1, r2
	str	r2, [r3, #84]
	.loc 1 23 0 discriminator 2
	sub	r5, r5, #96
	add	r1, r1, r5
	str	r1, [r3, #80]
.LVL50:
.L34:
	.loc 1 19 0 discriminator 1
	ldr	r3, [r7]
	cmp	r4, r3
	blt	.L35
.LBE5:
	.loc 1 25 0
	ldr	r2, .L36+20
	ldr	r2, [r2]
	add	r3, r3, r3, asl #1
	mov	r3, r3, asl #5
	sub	r3, r3, #96
	add	r3, r2, r3
	str	r3, [r2, #80]
	.loc 1 26 0
	str	r2, [r3, #84]
	.loc 1 27 0
	ldr	r3, .L36+12
	str	r2, [r3]
	.loc 1 28 0
	bl	create_idle
.LVL51:
	.loc 1 29 0
	ldr	r3, .L36+28
	ldr	r2, [r3]
	ldr	r3, .L36+16
	str	r2, [r3]
	.loc 1 31 0
	mov	r0, #0
	add	sp, sp, #96
	@ sp needed
	ldmfd	sp!, {r4, r5, r6, r7, r8, lr}
.LVL52:
	bx	lr
.L37:
	.align	2
.L36:
	.word	running_head
	.word	sleeping_head
	.word	waiting_head
	.word	empty_head
	.word	current_context
	.word	TCB_array
	.word	TCB_size
	.word	idle_thread
	.cfi_endproc
.LFE0:
	.size	init_tcb, .-init_tcb
	.global	tid_counter
	.comm	TCB_size,4,4
	.comm	idle_thread,4,4
	.comm	TCB_array,4,4
	.comm	current_context,4,4
	.comm	empty_head,4,4
	.comm	waiting_head,4,4
	.comm	sleeping_head,4,4
	.comm	running_head,4,4
	.bss
	.align	2
	.set	.LANCHOR0,. + 0
	.type	tid_counter, %object
	.size	tid_counter, 4
tid_counter:
	.space	4
	.text
.Letext0:
	.file 2 "include/system.h"
	.file 3 "include/memory.h"