	.cpu arm920t
	.fpu softvfp
	.eabi_attribute 20, 1
	.eabi_attribute 21, 1
	.eabi_attribute 23, 3
	.eabi_attribute 24, 1
	.eabi_attribute 25, 1
	.eabi_attribute 26, 1
	.eabi_attribute 30, 1
	.eabi_attribute 34, 0
	.eabi_attribute 18, 4
	.file	"threads.c"
	.text
.Ltext0:
	.cfi_sections	.debug_frame
	.align	2
	.global	rec_print
	.type	rec_print, %function
rec_print:
.LFB2:
	.file 1 "lib/threads.c"
	.loc 1 17 0
	.cfi_startproc
	@ Function supports interworking.
	@ args = 0, pretend = 0, frame = 8
	@ frame_needed = 0, uses_anonymous_args = 0
.LVL0:
	stmfd	sp!, {r4, r5, r6, r7, lr}
	.cfi_def_cfa_offset 20
	.cfi_offset 4, -20
	.cfi_offset 5, -16
	.cfi_offset 6, -12
	.cfi_offset 7, -8
	.cfi_offset 14, -4
	sub	sp, sp, #12
	.cfi_def_cfa_offset 32
	mov	r7, r0
.LVL1:
.LBB2:
	.loc 1 19 0
	mov	r4, #0
	.loc 1 20 0
	ldr	r6, .L4
	.loc 1 22 0
	ldr	r5, .L4+4
	.loc 1 19 0
	b	.L2
.LVL2:
.L3:
	.loc 1 20 0 discriminator 2
	mov	r0, r6
	add	r1, sp, #4
	mov	r2, r7
	bl	format
.LVL3:
	.loc 1 21 0 discriminator 2
	add	r0, sp, #4
	bl	strlen
.LVL4:
	mov	r1, r0
	add	r0, sp, #4
	bl	print
.LVL5:
	.loc 1 22 0 discriminator 2
	mov	r0, r5
	bl	sleep
.LVL6:
	.loc 1 19 0 discriminator 2
	add	r4, r4, #1
.LVL7:
.L2:
	.loc 1 19 0 is_stmt 0 discriminator 1
	cmp	r4, #9
	ble	.L3
.LBE2:
	.loc 1 24 0 is_stmt 1
	bl	kill_t
.LVL8:
	.loc 1 25 0
	add	sp, sp, #12
	@ sp needed
	ldmfd	sp!, {r4, r5, r6, r7, lr}
.LVL9:
	bx	lr
.L5:
	.align	2
.L4:
	.word	.LC0
	.word	50000
	.cfi_endproc
.LFE2:
	.size	rec_print, .-rec_print
	.align	2
	.global	receiver
	.type	receiver, %function
receiver:
.LFB0:
	.loc 1 7 0
	.cfi_startproc
	@ Function supports interworking.
	@ args = 0, pretend = 0, frame = 8
	@ frame_needed = 0, uses_anonymous_args = 0
	stmfd	sp!, {r4, r5, lr}
	.cfi_def_cfa_offset 12
	.cfi_offset 4, -12
	.cfi_offset 5, -8
	.cfi_offset 14, -4
	sub	sp, sp, #12
	.cfi_def_cfa_offset 24
	.loc 1 8 0
	ldr	r3, .L8
	ldmia	r3, {r0, r1}
	str	r0, [sp]
	strh	r1, [sp, #4]	@ movhi
	.loc 1 11 0
	ldr	r5, .L8+4
	mov	r4, #1
.L7:
	.loc 1 10 0 discriminator 1
	mov	r0, sp
	bl	receive
.LVL10:
	.loc 1 11 0 discriminator 1
	mov	r0, r5
	mov	r1, r4
	ldrb	r2, [sp]	@ zero_extendqisi2
	bl	create_t
.LVL11:
	b	.L7
.L9:
	.align	2
.L8:
	.word	.LC1
	.word	rec_print
	.cfi_endproc
.LFE0:
	.size	receiver, .-receiver
	.align	2
	.global	empty
	.type	empty, %function
empty:
.LFB1:
	.loc 1 15 0
	.cfi_startproc
	@ Function supports interworking.
	@ args = 0, pretend = 0, frame = 0
	@ frame_needed = 0, uses_anonymous_args = 0
	@ link register save eliminated.
	bx	lr
	.cfi_endproc
.LFE1:
	.size	empty, .-empty
	.section	.rodata.str1.4,"aMS",%progbits,1
	.align	2
.LC0:
	.ascii	"%c\000"
	.space	1
.LC1:
	.ascii	"hallo\000"
	.text
.Letext0:
	.file 2 "include/util.h"
	.file 3 "include/syscall.h"